target datalayout = "e-m:e-p270:32:32-p271:32:32-p272:64:64-i64:64-i128:128-f80:128-n8:16:32:64-S128"
target triple = "x86_64-unknown-linux-gnu"

%struct.dtoa_alloc = type { i32, i32, ptr, [8 x ptr], [1 x double] }

; Function Attrs: nounwind uwtable
define internal void @dalloc_init(ptr noundef %dalloc, i32 noundef %pmem_len) #0 {
entry:
  %dalloc.addr = alloca ptr, align 8
  %pmem_len.addr = alloca i32, align 4
  store ptr %dalloc, ptr %dalloc.addr, align 8
  store i32 %pmem_len, ptr %pmem_len.addr, align 4
  %0 = load ptr, ptr %dalloc.addr, align 8
  call void @llvm.memset.p0.i64(ptr align 8 %0, i8 0, i64 88, i1 false)
  %1 = load i32, ptr %pmem_len.addr, align 4
  %2 = load ptr, ptr %dalloc.addr, align 8
  %pmem_len1 = getelementptr inbounds %struct.dtoa_alloc, ptr %2, i32 0, i32 0
  store i32 %1, ptr %pmem_len1, align 8
  %3 = load ptr, ptr %dalloc.addr, align 8
  %private_mem = getelementptr inbounds %struct.dtoa_alloc, ptr %3, i32 0, i32 4
  %arraydecay = getelementptr inbounds [1 x double], ptr %private_mem, i64 0, i64 0
  %4 = load ptr, ptr %dalloc.addr, align 8
  %pmem_next = getelementptr inbounds %struct.dtoa_alloc, ptr %4, i32 0, i32 2
  store ptr %arraydecay, ptr %pmem_next, align 8
  ret void
}

; Function Attrs: nounwind uwtable
define hidden ptr @dtoa_alloc_init(ptr noundef %mem, i32 noundef %bytelen) #0 {
entry:
  %mem.addr = alloca ptr, align 8
  %bytelen.addr = alloca i32, align 4
  %dalloc = alloca ptr, align 8
  %pmem_len = alloca i32, align 4
  store ptr %mem, ptr %mem.addr, align 8
  store i32 %bytelen, ptr %bytelen.addr, align 4
  %0 = load ptr, ptr %mem.addr, align 8
  store ptr %0, ptr %dalloc, align 8
  %1 = load i32, ptr %bytelen.addr, align 4
  %conv = sext i32 %1 to i64
  %sub = sub i64 %conv, 88
  %div = udiv i64 %sub, 8
  %add = add i64 %div, 1
  %conv1 = trunc i64 %add to i32
  store i32 %conv1, ptr %pmem_len, align 4
  %2 = load ptr, ptr %dalloc, align 8
  %3 = load i32, ptr %pmem_len, align 4
  call void @dalloc_init(ptr noundef %2, i32 noundef %3)
  %4 = load ptr, ptr %dalloc, align 8
  ret ptr %4
}