; Function Attrs: mustprogress nofree norecurse nosync nounwind willreturn memory(argmem: write) uwtable
define hidden noundef ptr @dtoa_alloc_init(ptr noundef returned initializes((0, 88)) %mem, i32 noundef %bytelen) local_unnamed_addr #0 {
entry:
  %conv = sext i32 %bytelen to i64
  %sub = add nsw i64 %conv, 34359738280
  %div2 = lshr i64 %sub, 3
  %0 = trunc i64 %div2 to i32
  %conv1 = add nsw i32 %0, 1
  tail call void @llvm.memset.p0.i64(ptr noundef nonnull align 8 dereferenceable(88) %mem, i8 0, i64 88, i1 false)
  store i32 %conv1, ptr %mem, align 8
  %private_mem.i = getelementptr inbounds nuw i8, ptr %mem, i64 80
  %pmem_next.i = getelementptr inbounds nuw i8, ptr %mem, i64 8
  store ptr %private_mem.i, ptr %pmem_next.i, align 8
  ret ptr %mem
}